target datalayout = "e-m:e-p270:32:32-p271:32:32-p272:64:64-i64:64-i128:128-f80:128-n8:16:32:64-S128"
target triple = "x86_64-unknown-linux-gnu"

%"class.rocksdb::Slice" = type { ptr, i64 }
%"class.rocksdb::BlockIter" = type { %"class.rocksdb::InternalIteratorBase", %"class.std::unique_ptr", ptr, i32, i32, i32, i32, %"class.rocksdb::IterKey", %"class.rocksdb::IterKey", %"class.rocksdb::Slice", %"class.rocksdb::Status", %"class.rocksdb::Slice", i64, i64, i8, ptr, i32, i32, i8, i8, i8, ptr }
%"class.rocksdb::InternalIteratorBase" = type { ptr, %"class.rocksdb::Cleanable" }
%"class.rocksdb::Cleanable" = type { %"struct.rocksdb::Cleanable::Cleanup" }
%"struct.rocksdb::Cleanable::Cleanup" = type { ptr, ptr, ptr, ptr }
%"class.std::unique_ptr" = type { %"struct.std::__uniq_ptr_data" }
%"struct.std::__uniq_ptr_data" = type { %"class.std::__uniq_ptr_impl" }
%"class.std::__uniq_ptr_impl" = type { %"class.std::tuple" }
%"class.std::tuple" = type { %"struct.std::_Tuple_impl" }
%"struct.std::_Tuple_impl" = type { %"struct.std::_Head_base.1" }
%"struct.std::_Head_base.1" = type { ptr }
%"class.rocksdb::IterKey" = type { ptr, ptr, i64, i64, [39 x i8], i8 }
%"class.rocksdb::Status" = type { i8, i8, i8, i8, i8, i8, %"class.std::unique_ptr.2" }
%"class.std::unique_ptr.2" = type { %"struct.std::__uniq_ptr_data.3" }
%"struct.std::__uniq_ptr_data.3" = type { %"class.std::__uniq_ptr_impl.4" }
%"class.std::__uniq_ptr_impl.4" = type { %"class.std::tuple.5" }
%"class.std::tuple.5" = type { %"struct.std::_Tuple_impl.6" }
%"struct.std::_Tuple_impl.6" = type { %"struct.std::_Head_base.9" }
%"struct.std::_Head_base.9" = type { ptr }

; Function Attrs: mustprogress nounwind uwtable
define linkonce_odr noundef i32 @_ZN7rocksdb13DecodeFixed32EPKc(ptr noundef %ptr) #1 comdat {
entry:
  %ptr.addr = alloca ptr, align 8
  %result = alloca i32, align 4
  store ptr %ptr, ptr %ptr.addr, align 8
  %0 = load ptr, ptr %ptr.addr, align 8
  call void @llvm.memcpy.p0.p0.i64(ptr align 4 %result, ptr align 1 %0, i64 4, i1 false)
  %1 = load i32, ptr %result, align 4
  ret i32 %1
}

; Function Attrs: mustprogress nounwind uwtable
define linkonce_odr void @_ZN7rocksdb5SliceC2EPKcm(ptr noundef nonnull align 8 dereferenceable(16) %this, ptr noundef %d, i64 noundef %n) unnamed_addr #1 comdat align 2 {
entry:
  %this.addr = alloca ptr, align 8
  %d.addr = alloca ptr, align 8
  %n.addr = alloca i64, align 8
  store ptr %this, ptr %this.addr, align 8
  store ptr %d, ptr %d.addr, align 8
  store i64 %n, ptr %n.addr, align 8
  %this1 = load ptr, ptr %this.addr, align 8
  %data_ = getelementptr inbounds %"class.rocksdb::Slice", ptr %this1, i32 0, i32 0
  %0 = load ptr, ptr %d.addr, align 8
  store ptr %0, ptr %data_, align 8
  %size_ = getelementptr inbounds %"class.rocksdb::Slice", ptr %this1, i32 0, i32 1
  %1 = load i64, ptr %n.addr, align 8
  store i64 %1, ptr %size_, align 8
  ret void
}

; Function Attrs: mustprogress nounwind uwtable
define linkonce_odr noundef i32 @_ZNK7rocksdb9BlockIterINS_5SliceEE15GetRestartPointEj(ptr noundef nonnull align 8 dereferenceable(320) %this, i32 noundef %index) #1 comdat align 2 {
entry:
  %this.addr = alloca ptr, align 8
  %index.addr = alloca i32, align 4
  store ptr %this, ptr %this.addr, align 8
  store i32 %index, ptr %index.addr, align 4
  %this1 = load ptr, ptr %this.addr, align 8
  %data_ = getelementptr inbounds %"class.rocksdb::BlockIter", ptr %this1, i32 0, i32 2
  %0 = load ptr, ptr %data_, align 8
  %restarts_ = getelementptr inbounds %"class.rocksdb::BlockIter", ptr %this1, i32 0, i32 5
  %1 = load i32, ptr %restarts_, align 8
  %idx.ext = zext i32 %1 to i64
  %add.ptr = getelementptr inbounds i8, ptr %0, i64 %idx.ext
  %2 = load i32, ptr %index.addr, align 4
  %conv = zext i32 %2 to i64
  %mul = mul i64 %conv, 4
  %add.ptr2 = getelementptr inbounds i8, ptr %add.ptr, i64 %mul
  %call = call noundef i32 @_ZN7rocksdb13DecodeFixed32EPKc(ptr noundef %add.ptr2)
  ret i32 %call
}

; Function Attrs: mustprogress nounwind uwtable
define linkonce_odr void @_ZN7rocksdb7IterKey5ClearEv(ptr noundef nonnull align 8 dereferenceable(72) %this) #1 comdat align 2 {
entry:
  %this.addr = alloca ptr, align 8
  store ptr %this, ptr %this.addr, align 8
  %this1 = load ptr, ptr %this.addr, align 8
  %key_size_ = getelementptr inbounds %"class.rocksdb::IterKey", ptr %this1, i32 0, i32 2
  store i64 0, ptr %key_size_, align 8
  ret void
}

; Function Attrs: mustprogress uwtable
define linkonce_odr noundef zeroext i1 @_ZN7rocksdb13DataBlockIter16ParseNextDataKeyEPb(ptr noundef nonnull align 8 dereferenceable(408) %this, ptr noundef %is_shared) #0 comdat align 2 {
entry:
  %retval = alloca i1, align 1
  %this.addr = alloca ptr, align 8
  %is_shared.addr = alloca ptr, align 8
  store ptr %this, ptr %this.addr, align 8
  store ptr %is_shared, ptr %is_shared.addr, align 8
  %this1 = load ptr, ptr %this.addr, align 8
  %0 = load ptr, ptr %is_shared.addr, align 8
  %call = call noundef zeroext i1 @_ZN7rocksdb9BlockIterINS_5SliceEE12ParseNextKeyINS_11DecodeEntryEEEbPb(ptr noundef nonnull align 8 dereferenceable(320) %this1, ptr noundef %0)
  br i1 %call, label %if.then, label %if.else

if.then:                                          ; preds = %entry
  store i1 true, ptr %retval, align 1
  br label %return

if.else:                                          ; preds = %entry
  store i1 false, ptr %retval, align 1
  br label %return

return:                                           ; preds = %if.else, %if.then
  %1 = load i1, ptr %retval, align 1
  ret i1 %1
}

; Function Attrs: mustprogress uwtable
define linkonce_odr void @_ZN7rocksdb9BlockIterINS_5SliceEE18SeekToRestartPointEj(ptr noundef nonnull align 8 dereferenceable(320) %this, i32 noundef %index) #0 comdat align 2 {
entry:
  %this.addr = alloca ptr, align 8
  %index.addr = alloca i32, align 4
  %offset = alloca i32, align 4
  %ref.tmp = alloca %"class.rocksdb::Slice", align 8
  store ptr %this, ptr %this.addr, align 8
  store i32 %index, ptr %index.addr, align 4
  %this1 = load ptr, ptr %this.addr, align 8
  %raw_key_ = getelementptr inbounds %"class.rocksdb::BlockIter", ptr %this1, i32 0, i32 7
  call void @_ZN7rocksdb7IterKey5ClearEv(ptr noundef nonnull align 8 dereferenceable(72) %raw_key_)
  %0 = load i32, ptr %index.addr, align 4
  %restart_index_ = getelementptr inbounds %"class.rocksdb::BlockIter", ptr %this1, i32 0, i32 4
  store i32 %0, ptr %restart_index_, align 4
  %1 = load i32, ptr %index.addr, align 4
  %call = call noundef i32 @_ZNK7rocksdb9BlockIterINS_5SliceEE15GetRestartPointEj(ptr noundef nonnull align 8 dereferenceable(320) %this1, i32 noundef %1)
  store i32 %call, ptr %offset, align 4
  %data_ = getelementptr inbounds %"class.rocksdb::BlockIter", ptr %this1, i32 0, i32 2
  %2 = load ptr, ptr %data_, align 8
  %3 = load i32, ptr %offset, align 4
  %idx.ext = zext i32 %3 to i64
  %add.ptr = getelementptr inbounds i8, ptr %2, i64 %idx.ext
  call void @_ZN7rocksdb5SliceC2EPKcm(ptr noundef nonnull align 8 dereferenceable(16) %ref.tmp, ptr noundef %add.ptr, i64 noundef 0)
  %value_ = getelementptr inbounds %"class.rocksdb::BlockIter", ptr %this1, i32 0, i32 9
  call void @llvm.memcpy.p0.p0.i64(ptr align 8 %value_, ptr align 8 %ref.tmp, i64 16, i1 false)
  ret void
}

; Function Attrs: mustprogress uwtable
define void @_ZN7rocksdb13DataBlockIter15SeekToFirstImplEv(ptr noundef nonnull align 8 dereferenceable(408) %this) unnamed_addr #0 align 2 {
entry:
  %this.addr = alloca ptr, align 8
  %is_shared = alloca i8, align 1
  store ptr %this, ptr %this.addr, align 8
  %this1 = load ptr, ptr %this.addr, align 8
  %data_ = getelementptr inbounds %"class.rocksdb::BlockIter", ptr %this1, i32 0, i32 2
  %0 = load ptr, ptr %data_, align 8
  %cmp = icmp eq ptr %0, null
  br i1 %cmp, label %if.then, label %if.end

if.then:                                          ; preds = %entry
  br label %return

if.end:                                           ; preds = %entry
  call void @_ZN7rocksdb9BlockIterINS_5SliceEE18SeekToRestartPointEj(ptr noundef nonnull align 8 dereferenceable(320) %this1, i32 noundef 0)
  store i8 0, ptr %is_shared, align 1
  %call = call noundef zeroext i1 @_ZN7rocksdb13DataBlockIter16ParseNextDataKeyEPb(ptr noundef nonnull align 8 dereferenceable(408) %this1, ptr noundef %is_shared)
  %cur_entry_idx_ = getelementptr inbounds %"class.rocksdb::BlockIter", ptr %this1, i32 0, i32 16
  store i32 0, ptr %cur_entry_idx_, align 8
  br label %return

return:                                           ; preds = %if.end, %if.then
  ret void
}