; Function Attrs: mustprogress uwtable
define void @_ZN7rocksdb13DataBlockIter15SeekToFirstImplEv(ptr noundef nonnull align 8 dereferenceable(408) %this) unnamed_addr #1 align 2 {
entry:
  %is_shared = alloca i8, align 1
  %data_ = getelementptr inbounds i8, ptr %this, i64 48
  %0 = load ptr, ptr %data_, align 8
  %cmp = icmp eq ptr %0, null
  br i1 %cmp, label %return, label %if.end

if.end:                                           ; preds = %entry
  %key_size_.i.i = getelementptr inbounds i8, ptr %this, i64 88
  store i64 0, ptr %key_size_.i.i, align 8
  %restart_index_.i = getelementptr inbounds i8, ptr %this, i64 60
  store i32 0, ptr %restart_index_.i, align 4
  %restarts_.i.i = getelementptr inbounds i8, ptr %this, i64 64
  %1 = load i32, ptr %restarts_.i.i, align 8
  %idx.ext.i.i = zext i32 %1 to i64
  %add.ptr.i.i = getelementptr inbounds i8, ptr %0, i64 %idx.ext.i.i
  %result.0.copyload.i.i.i = load i32, ptr %add.ptr.i.i, align 1
  %idx.ext.i = zext i32 %result.0.copyload.i.i.i to i64
  %add.ptr.i = getelementptr inbounds i8, ptr %0, i64 %idx.ext.i
  %value_.i = getelementptr inbounds i8, ptr %this, i64 216
  store ptr %add.ptr.i, ptr %value_.i, align 8
  %ref.tmp.sroa.2.0.value_.sroa_idx.i = getelementptr inbounds i8, ptr %this, i64 224
  store i64 0, ptr %ref.tmp.sroa.2.0.value_.sroa_idx.i, align 8
  store i8 0, ptr %is_shared, align 1
  %call.i = call noundef zeroext i1 @_ZN7rocksdb9BlockIterINS_5SliceEE12ParseNextKeyINS_11DecodeEntryEEEbPb(ptr noundef nonnull align 8 dereferenceable(320) %this, ptr noundef nonnull %is_shared)
  %cur_entry_idx_ = getelementptr inbounds i8, ptr %this, i64 296
  store i32 0, ptr %cur_entry_idx_, align 8
  br label %return

return:                                           ; preds = %entry, %if.end
  ret void
}